target datalayout = "e-m:e-p270:32:32-p271:32:32-p272:64:64-i64:64-i128:128-f80:128-n8:16:32:64-S128"
target triple = "x86_64-pc-linux-gnu"

%struct.StringInfoData = type { ptr, i32, i32, i32 }
%struct.RelationData = type { %struct.RelFileLocator, ptr, i32, i32, i8, i8, i8, i8, i8, i32, i32, i32, i32, ptr, ptr, i32, %struct.LockInfoData, ptr, ptr, ptr, ptr, ptr, i8, ptr, ptr, ptr, ptr, ptr, ptr, i32, ptr, i8, ptr, ptr, i32, i8, i32, ptr, i8, ptr, ptr, ptr, ptr, ptr, ptr, ptr, i32, ptr, ptr, ptr, ptr, ptr, ptr, ptr, ptr, ptr, ptr, ptr, ptr, ptr, ptr, ptr, ptr, ptr, ptr, ptr, i32, i8, ptr }
%struct.RelFileLocator = type { i32, i32, i32 }
%struct.LockInfoData = type { %struct.LockRelId }
%struct.LockRelId = type { i32, i32 }
%struct.FormData_pg_index = type { i32, i32, i16, i16, i8, i8, i8, i8, i8, i8, i8, i8, i8, i8, i8, %struct.int2vector }
%struct.int2vector = type { i32, i32, i32, i32, i32, i32, [0 x i16] }

@.str = private unnamed_addr constant [7 x i8] c"(%s)=(\00", align 1
@.str.1 = private unnamed_addr constant [5 x i8] c"null\00", align 1
@.str.2 = private unnamed_addr constant [3 x i8] c", \00", align 1

; Function Attrs: nounwind uwtable
define dso_local ptr @BuildIndexValueDescription(ptr noundef %0, ptr noundef %1, ptr noundef %2) #0 {
  %4 = alloca ptr, align 8
  %5 = alloca ptr, align 8
  %6 = alloca ptr, align 8
  %7 = alloca ptr, align 8
  %8 = alloca %struct.StringInfoData, align 8
  %9 = alloca ptr, align 8
  %10 = alloca i32, align 4
  %11 = alloca i32, align 4
  %12 = alloca i32, align 4
  %13 = alloca i32, align 4
  %14 = alloca i32, align 4
  %15 = alloca i32, align 4
  %16 = alloca i32, align 4
  %17 = alloca i16, align 2
  %18 = alloca ptr, align 8
  %19 = alloca i32, align 4
  %20 = alloca i8, align 1
  store ptr %0, ptr %5, align 8
  store ptr %1, ptr %6, align 8
  store ptr %2, ptr %7, align 8
  call void @llvm.lifetime.start.p0(i64 24, ptr %8) #7
  call void @llvm.lifetime.start.p0(i64 8, ptr %9) #7
  call void @llvm.lifetime.start.p0(i64 4, ptr %10) #7
  call void @llvm.lifetime.start.p0(i64 4, ptr %11) #7
  call void @llvm.lifetime.start.p0(i64 4, ptr %12) #7
  call void @llvm.lifetime.start.p0(i64 4, ptr %13) #7
  %21 = load ptr, ptr %5, align 8
  %22 = getelementptr inbounds nuw %struct.RelationData, ptr %21, i32 0, i32 15
  %23 = load i32, ptr %22, align 8
  store i32 %23, ptr %13, align 4
  call void @llvm.lifetime.start.p0(i64 4, ptr %14) #7
  call void @llvm.lifetime.start.p0(i64 4, ptr %15) #7
  %24 = load ptr, ptr %5, align 8
  %25 = getelementptr inbounds nuw %struct.RelationData, ptr %24, i32 0, i32 48
  %26 = load ptr, ptr %25, align 8
  %27 = getelementptr inbounds nuw %struct.FormData_pg_index, ptr %26, i32 0, i32 3
  %28 = load i16, ptr %27, align 2
  %29 = sext i16 %28 to i32
  store i32 %29, ptr %10, align 4
  %30 = load ptr, ptr %5, align 8
  %31 = getelementptr inbounds nuw %struct.RelationData, ptr %30, i32 0, i32 48
  %32 = load ptr, ptr %31, align 8
  store ptr %32, ptr %9, align 8
  %33 = load ptr, ptr %9, align 8
  %34 = getelementptr inbounds nuw %struct.FormData_pg_index, ptr %33, i32 0, i32 1
  %35 = load i32, ptr %34, align 4
  store i32 %35, ptr %14, align 4
  %36 = load i32, ptr %14, align 4
  %37 = call i32 @check_enable_rls(i32 noundef %36, i32 noundef 0, i1 noundef zeroext true)
  %38 = icmp eq i32 %37, 2
  br i1 %38, label %39, label %40

39:                                               ; preds = %3
  store ptr null, ptr %4, align 8
  store i32 1, ptr %16, align 4
  br label %119

40:                                               ; preds = %3
  %41 = load i32, ptr %14, align 4
  %42 = call i32 @GetUserId()
  %43 = call i32 @pg_class_aclcheck(i32 noundef %41, i32 noundef %42, i64 noundef 2)
  store i32 %43, ptr %15, align 4
  %44 = load i32, ptr %15, align 4
  %45 = icmp ne i32 %44, 0
  br i1 %45, label %46, label %77

46:                                               ; preds = %40
  store i32 0, ptr %12, align 4
  br label %47

47:                                               ; preds = %73, %46
  %48 = load i32, ptr %12, align 4
  %49 = load i32, ptr %10, align 4
  %50 = icmp slt i32 %48, %49
  br i1 %50, label %51, label %76

51:                                               ; preds = %47
  call void @llvm.lifetime.start.p0(i64 2, ptr %17) #7
  %52 = load ptr, ptr %9, align 8
  %53 = getelementptr inbounds nuw %struct.FormData_pg_index, ptr %52, i32 0, i32 15
  %54 = getelementptr inbounds nuw %struct.int2vector, ptr %53, i32 0, i32 6
  %55 = load i32, ptr %12, align 4
  %56 = sext i32 %55 to i64
  %57 = getelementptr inbounds [0 x i16], ptr %54, i64 0, i64 %56
  %58 = load i16, ptr %57, align 2
  store i16 %58, ptr %17, align 2
  %59 = load i16, ptr %17, align 2
  %60 = sext i16 %59 to i32
  %61 = icmp eq i32 %60, 0
  br i1 %61, label %68, label %62

62:                                               ; preds = %51
  %63 = load i32, ptr %14, align 4
  %64 = load i16, ptr %17, align 2
  %65 = call i32 @GetUserId()
  %66 = call i32 @pg_attribute_aclcheck(i32 noundef %63, i16 noundef signext %64, i32 noundef %65, i64 noundef 2)
  %67 = icmp ne i32 %66, 0
  br i1 %67, label %68, label %69

68:                                               ; preds = %62, %51
  store ptr null, ptr %4, align 8
  store i32 1, ptr %16, align 4
  br label %70

69:                                               ; preds = %62
  store i32 0, ptr %16, align 4
  br label %70

70:                                               ; preds = %69, %68
  call void @llvm.lifetime.end.p0(i64 2, ptr %17) #7
  %71 = load i32, ptr %16, align 4
  switch i32 %71, label %119 [
    i32 0, label %72
  ]

72:                                               ; preds = %70
  br label %73

73:                                               ; preds = %72
  %74 = load i32, ptr %12, align 4
  %75 = add i32 %74, 1
  store i32 %75, ptr %12, align 4
  br label %47, !llvm.loop !6

76:                                               ; preds = %47
  br label %77

77:                                               ; preds = %76, %40
  call void @initStringInfo(ptr noundef %8)
  %78 = load i32, ptr %13, align 4
  %79 = call ptr @pg_get_indexdef_columns(i32 noundef %78, i1 noundef zeroext true)
  call void (ptr, ptr, ...) @appendStringInfo(ptr noundef %8, ptr noundef @.str, ptr noundef %79)
  store i32 0, ptr %11, align 4
  br label %80

80:                                               ; preds = %113, %77
  %81 = load i32, ptr %11, align 4
  %82 = load i32, ptr %10, align 4
  %83 = icmp slt i32 %81, %82
  br i1 %83, label %84, label %116

84:                                               ; preds = %80
  call void @llvm.lifetime.start.p0(i64 8, ptr %18) #7
  %85 = load ptr, ptr %7, align 8
  %86 = load i32, ptr %11, align 4
  %87 = sext i32 %86 to i64
  %88 = getelementptr inbounds i8, ptr %85, i64 %87
  %89 = load i8, ptr %88, align 1, !range !4, !noundef !5
  %90 = trunc i8 %89 to i1
  br i1 %90, label %91, label %92

91:                                               ; preds = %84
  store ptr @.str.1, ptr %18, align 8
  br label %107

92:                                               ; preds = %84
  call void @llvm.lifetime.start.p0(i64 4, ptr %19) #7
  call void @llvm.lifetime.start.p0(i64 1, ptr %20) #7
  %93 = load ptr, ptr %5, align 8
  %94 = getelementptr inbounds nuw %struct.RelationData, ptr %93, i32 0, i32 53
  %95 = load ptr, ptr %94, align 8
  %96 = load i32, ptr %11, align 4
  %97 = sext i32 %96 to i64
  %98 = getelementptr inbounds i32, ptr %95, i64 %97
  %99 = load i32, ptr %98, align 4
  call void @getTypeOutputInfo(i32 noundef %99, ptr noundef %19, ptr noundef %20)
  %100 = load i32, ptr %19, align 4
  %101 = load ptr, ptr %6, align 8
  %102 = load i32, ptr %11, align 4
  %103 = sext i32 %102 to i64
  %104 = getelementptr inbounds i64, ptr %101, i64 %103
  %105 = load i64, ptr %104, align 8
  %106 = call ptr @OidOutputFunctionCall(i32 noundef %100, i64 noundef %105)
  store ptr %106, ptr %18, align 8
  call void @llvm.lifetime.end.p0(i64 1, ptr %20) #7
  call void @llvm.lifetime.end.p0(i64 4, ptr %19) #7
  br label %107

107:                                              ; preds = %92, %91
  %108 = load i32, ptr %11, align 4
  %109 = icmp sgt i32 %108, 0
  br i1 %109, label %110, label %111

110:                                              ; preds = %107
  call void @appendStringInfoString(ptr noundef %8, ptr noundef @.str.2)
  br label %111

111:                                              ; preds = %110, %107
  %112 = load ptr, ptr %18, align 8
  call void @appendStringInfoString(ptr noundef %8, ptr noundef %112)
  call void @llvm.lifetime.end.p0(i64 8, ptr %18) #7
  br label %113

113:                                              ; preds = %111
  %114 = load i32, ptr %11, align 4
  %115 = add i32 %114, 1
  store i32 %115, ptr %11, align 4
  br label %80, !llvm.loop !8

116:                                              ; preds = %80
  call void @appendStringInfoChar(ptr noundef %8, i8 noundef signext 41)
  %117 = getelementptr inbounds nuw %struct.StringInfoData, ptr %8, i32 0, i32 0
  %118 = load ptr, ptr %117, align 8
  store ptr %118, ptr %4, align 8
  store i32 1, ptr %16, align 4
  br label %119

119:                                              ; preds = %116, %70, %39
  call void @llvm.lifetime.end.p0(i64 4, ptr %15) #7
  call void @llvm.lifetime.end.p0(i64 4, ptr %14) #7
  call void @llvm.lifetime.end.p0(i64 4, ptr %13) #7
  call void @llvm.lifetime.end.p0(i64 4, ptr %12) #7
  call void @llvm.lifetime.end.p0(i64 4, ptr %11) #7
  call void @llvm.lifetime.end.p0(i64 4, ptr %10) #7
  call void @llvm.lifetime.end.p0(i64 8, ptr %9) #7
  call void @llvm.lifetime.end.p0(i64 24, ptr %8) #7
  %120 = load ptr, ptr %4, align 8
  ret ptr %120
}