; Function Attrs: nounwind uwtable
define dso_local ptr @BuildIndexValueDescription(ptr noundef readonly captures(none) %0, ptr noundef readonly captures(none) %1, ptr noundef readonly captures(none) %2) local_unnamed_addr #0 {
  %4 = alloca %struct.StringInfoData, align 8
  %5 = alloca i32, align 4
  %6 = alloca i8, align 1
  call void @llvm.lifetime.start.p0(i64 24, ptr nonnull %4) #7
  %7 = getelementptr inbounds nuw i8, ptr %0, i64 72
  %8 = load i32, ptr %7, align 8
  %9 = getelementptr inbounds nuw i8, ptr %0, i64 328
  %10 = load ptr, ptr %9, align 8
  %11 = getelementptr inbounds nuw i8, ptr %10, i64 10
  %12 = load i16, ptr %11, align 2
  %13 = sext i16 %12 to i32
  %14 = getelementptr inbounds nuw i8, ptr %10, i64 4
  %15 = load i32, ptr %14, align 4
  %16 = tail call i32 @check_enable_rls(i32 noundef %15, i32 noundef 0, i1 noundef zeroext true) #7
  %17 = icmp eq i32 %16, 2
  br i1 %17, label %.loopexit34, label %18

18:                                               ; preds = %3
  %19 = tail call i32 @GetUserId() #7
  %20 = tail call i32 @pg_class_aclcheck(i32 noundef %15, i32 noundef %19, i64 noundef 2) #7
  %.not = icmp ne i32 %20, 0
  %21 = icmp sgt i16 %12, 0
  %or.cond = select i1 %.not, i1 %21, i1 false
  br i1 %or.cond, label %.lr.ph, label %.loopexit

.lr.ph:                                           ; preds = %18
  %22 = getelementptr inbounds nuw i8, ptr %10, i64 48
  %wide.trip.count = zext nneg i32 %13 to i64
  br label %24

23:                                               ; preds = %.critedge
  %indvars.iv.next = add nuw nsw i64 %indvars.iv, 1
  %exitcond.not = icmp eq i64 %indvars.iv.next, %wide.trip.count
  br i1 %exitcond.not, label %.loopexit, label %24, !llvm.loop !4

24:                                               ; preds = %.lr.ph, %23
  %indvars.iv = phi i64 [ 0, %.lr.ph ], [ %indvars.iv.next, %23 ]
  %25 = getelementptr inbounds nuw [0 x i16], ptr %22, i64 0, i64 %indvars.iv
  %26 = load i16, ptr %25, align 2
  %27 = icmp eq i16 %26, 0
  br i1 %27, label %.loopexit34, label %.critedge

.critedge:                                        ; preds = %24
  %28 = tail call i32 @GetUserId() #7
  %29 = tail call i32 @pg_attribute_aclcheck(i32 noundef %15, i16 noundef signext %26, i32 noundef %28, i64 noundef 2) #7
  %.not33 = icmp eq i32 %29, 0
  br i1 %.not33, label %23, label %.loopexit34

.loopexit:                                        ; preds = %23, %18
  call void @initStringInfo(ptr noundef nonnull %4) #7
  %30 = call ptr @pg_get_indexdef_columns(i32 noundef %8, i1 noundef zeroext true) #7
  call void (ptr, ptr, ...) @appendStringInfo(ptr noundef nonnull %4, ptr noundef nonnull @.str, ptr noundef %30) #7
  br i1 %21, label %.lr.ph37, label %._crit_edge

.lr.ph37:                                         ; preds = %.loopexit
  %31 = getelementptr inbounds nuw i8, ptr %0, i64 368
  %wide.trip.count42 = zext nneg i32 %13 to i64
  br label %32

32:                                               ; preds = %.lr.ph37, %46
  %indvars.iv39 = phi i64 [ 0, %.lr.ph37 ], [ %indvars.iv.next40, %46 ]
  %33 = getelementptr inbounds nuw i8, ptr %2, i64 %indvars.iv39
  %34 = load i8, ptr %33, align 1, !range !6, !noundef !7
  %35 = trunc nuw i8 %34 to i1
  br i1 %35, label %44, label %36

36:                                               ; preds = %32
  call void @llvm.lifetime.start.p0(i64 4, ptr nonnull %5) #7
  call void @llvm.lifetime.start.p0(i64 1, ptr nonnull %6) #7
  %37 = load ptr, ptr %31, align 8
  %38 = getelementptr inbounds nuw i32, ptr %37, i64 %indvars.iv39
  %39 = load i32, ptr %38, align 4
  call void @getTypeOutputInfo(i32 noundef %39, ptr noundef nonnull %5, ptr noundef nonnull %6) #7
  %40 = load i32, ptr %5, align 4
  %41 = getelementptr inbounds nuw i64, ptr %1, i64 %indvars.iv39
  %42 = load i64, ptr %41, align 8
  %43 = call ptr @OidOutputFunctionCall(i32 noundef %40, i64 noundef %42) #7
  call void @llvm.lifetime.end.p0(i64 1, ptr nonnull %6) #7
  call void @llvm.lifetime.end.p0(i64 4, ptr nonnull %5) #7
  br label %44

44:                                               ; preds = %32, %36
  %.0 = phi ptr [ %43, %36 ], [ @.str.1, %32 ]
  %.not32 = icmp eq i64 %indvars.iv39, 0
  br i1 %.not32, label %46, label %45

45:                                               ; preds = %44
  call void @appendStringInfoString(ptr noundef nonnull %4, ptr noundef nonnull @.str.2) #7
  br label %46

46:                                               ; preds = %45, %44
  call void @appendStringInfoString(ptr noundef nonnull %4, ptr noundef %.0) #7
  %indvars.iv.next40 = add nuw nsw i64 %indvars.iv39, 1
  %exitcond43.not = icmp eq i64 %indvars.iv.next40, %wide.trip.count42
  br i1 %exitcond43.not, label %._crit_edge, label %32, !llvm.loop !8

._crit_edge:                                      ; preds = %46, %.loopexit
  call void @appendStringInfoChar(ptr noundef nonnull %4, i8 noundef signext 41) #7
  %47 = load ptr, ptr %4, align 8
  br label %.loopexit34

.loopexit34:                                      ; preds = %.critedge, %24, %3, %._crit_edge
  %.028 = phi ptr [ %47, %._crit_edge ], [ null, %3 ], [ null, %24 ], [ null, %.critedge ]
  call void @llvm.lifetime.end.p0(i64 24, ptr nonnull %4) #7
  ret ptr %.028
}